target datalayout = "e-m:e-p270:32:32-p271:32:32-p272:64:64-i64:64-i128:128-f80:128-n8:16:32:64-S128"
target triple = "x86_64-pc-linux-gnu"

%struct.Mv = type { i32, i32 }
%struct.VVCLocalContext = type { i8, i8, i8, i8, i32, i32, [4 x i8], [3276800 x i8], [16384 x i16], [16384 x i16], [16384 x i16], [32768 x i8], [332800 x i8], [368640 x i8], [368640 x i8], [17424 x i32], %struct.anon, %struct.anon.0, ptr, [2 x [1024 x %struct.ReconstructedArea]], [2 x i32], %struct.NeighbourAvailable, i32, ptr, ptr, ptr, ptr }
%struct.anon = type { i32, i8, i32, i32, i32, [3 x i32], i32, i32, i32, i32, i32, i32 }
%struct.anon.0 = type { i32, i32, i32 }
%struct.ReconstructedArea = type { i32, i32, i32, i32 }
%struct.NeighbourAvailable = type { i32, i32, i32, i32, i32 }
%struct.MvField = type { [2 x %struct.Mv], [2 x i8], i8, i8, i8, i8 }
%struct.CodingUnit = type { i32, i32, i32, i32, i32, i32, i32, i8, i8, i8, i8, i32, i32, i8, i8, i8, i8, i8, i32, i32, i32, i32, i32, i32, [3 x i32], [3 x i32], %struct.anon.3, [4 x i8], [3 x %struct.Palette], [4 x i8], %struct.PredictionUnit, ptr }
%struct.anon.3 = type { ptr, ptr }
%struct.Palette = type { i8, [63 x i16] }
%struct.PredictionUnit = type { i8, i8, i8, i8, i8, i8, [2 x %struct.MvField], i32, %struct.MotionInfo, i8, i8, [2 x [16 x i16]], [2 x [16 x i16]], [2 x i32], [4 x i8] }
%struct.MotionInfo = type { i32, [2 x i8], i8, i8, i32, [2 x [3 x %struct.Mv]], i32, i32 }

; Function Attrs: nounwind uwtable
define void @ff_vvc_luma_mv_merge_gpm(ptr noundef %0, ptr noundef %1, ptr noundef %2) #0 {
  %4 = alloca ptr, align 8
  %5 = alloca ptr, align 8
  %6 = alloca ptr, align 8
  %7 = alloca ptr, align 8
  %8 = alloca [6 x %struct.MvField], align 16
  %9 = alloca [2 x i32], align 4
  %10 = alloca i32, align 4
  %11 = alloca i32, align 4
  %12 = alloca i32, align 4
  %13 = alloca ptr, align 8
  store ptr %0, ptr %4, align 8, !tbaa !14
  store ptr %1, ptr %5, align 8, !tbaa !165
  store ptr %2, ptr %6, align 8, !tbaa !77
  call void @llvm.lifetime.start.p0(i64 8, ptr %7) #9
  %14 = load ptr, ptr %4, align 8, !tbaa !14
  %15 = getelementptr inbounds nuw %struct.VVCLocalContext, ptr %14, i32 0, i32 18
  %16 = load ptr, ptr %15, align 8, !tbaa !90
  store ptr %16, ptr %7, align 8, !tbaa !91
  call void @llvm.lifetime.start.p0(i64 144, ptr %8) #9
  call void @llvm.lifetime.start.p0(i64 8, ptr %9) #9
  %17 = load ptr, ptr %5, align 8, !tbaa !165
  %18 = getelementptr inbounds i32, ptr %17, i64 0
  %19 = load i32, ptr %18, align 4, !tbaa !9
  store i32 %19, ptr %9, align 4, !tbaa !9
  %20 = getelementptr inbounds i32, ptr %9, i64 1
  %21 = load ptr, ptr %5, align 8, !tbaa !165
  %22 = getelementptr inbounds i32, ptr %21, i64 1
  %23 = load i32, ptr %22, align 4, !tbaa !9
  %24 = load ptr, ptr %5, align 8, !tbaa !165
  %25 = getelementptr inbounds i32, ptr %24, i64 1
  %26 = load i32, ptr %25, align 4, !tbaa !9
  %27 = load ptr, ptr %5, align 8, !tbaa !165
  %28 = getelementptr inbounds i32, ptr %27, i64 0
  %29 = load i32, ptr %28, align 4, !tbaa !9
  %30 = icmp sge i32 %26, %29
  %31 = zext i1 %30 to i32
  %32 = add nsw i32 %23, %31
  store i32 %32, ptr %20, align 4, !tbaa !9
  %33 = load ptr, ptr %4, align 8, !tbaa !14
  %34 = load ptr, ptr %7, align 8, !tbaa !91
  %35 = getelementptr inbounds nuw %struct.CodingUnit, ptr %34, i32 0, i32 1
  %36 = load i32, ptr %35, align 4, !tbaa !108
  %37 = load ptr, ptr %7, align 8, !tbaa !91
  %38 = getelementptr inbounds nuw %struct.CodingUnit, ptr %37, i32 0, i32 2
  %39 = load i32, ptr %38, align 8, !tbaa !109
  %40 = load ptr, ptr %7, align 8, !tbaa !91
  %41 = getelementptr inbounds nuw %struct.CodingUnit, ptr %40, i32 0, i32 3
  %42 = load i32, ptr %41, align 4, !tbaa !107
  %43 = load ptr, ptr %7, align 8, !tbaa !91
  %44 = getelementptr inbounds nuw %struct.CodingUnit, ptr %43, i32 0, i32 4
  %45 = load i32, ptr %44, align 8, !tbaa !101
  call void @ff_vvc_set_neighbour_available(ptr noundef %33, i32 noundef %36, i32 noundef %39, i32 noundef %42, i32 noundef %45)
  %46 = load ptr, ptr %4, align 8, !tbaa !14
  %47 = getelementptr inbounds [2 x i32], ptr %9, i64 0, i64 0
  %48 = load i32, ptr %47, align 4, !tbaa !9
  %49 = getelementptr inbounds [2 x i32], ptr %9, i64 0, i64 1
  %50 = load i32, ptr %49, align 4, !tbaa !9
  %51 = icmp sgt i32 %48, %50
  br i1 %51, label %52, label %55

52:                                               ; preds = %3
  %53 = getelementptr inbounds [2 x i32], ptr %9, i64 0, i64 0
  %54 = load i32, ptr %53, align 4, !tbaa !9
  br label %58

55:                                               ; preds = %3
  %56 = getelementptr inbounds [2 x i32], ptr %9, i64 0, i64 1
  %57 = load i32, ptr %56, align 4, !tbaa !9
  br label %58

58:                                               ; preds = %55, %52
  %59 = phi i32 [ %54, %52 ], [ %57, %55 ]
  %60 = getelementptr inbounds [6 x %struct.MvField], ptr %8, i64 0, i64 0
  call void @mv_merge_mode(ptr noundef %46, i32 noundef %59, ptr noundef %60)
  %61 = load ptr, ptr %6, align 8, !tbaa !77
  call void @llvm.memset.p0.i64(ptr align 8 %61, i8 0, i64 48, i1 false)
  call void @llvm.lifetime.start.p0(i64 4, ptr %10) #9
  store i32 0, ptr %10, align 4, !tbaa !9
  br label %62

62:                                               ; preds = %130, %58
  %63 = load i32, ptr %10, align 4, !tbaa !9
  %64 = icmp slt i32 %63, 2
  br i1 %64, label %66, label %65

65:                                               ; preds = %62
  call void @llvm.lifetime.end.p0(i64 4, ptr %10) #9
  br label %133

66:                                               ; preds = %62
  call void @llvm.lifetime.start.p0(i64 4, ptr %11) #9
  %67 = load i32, ptr %10, align 4, !tbaa !9
  %68 = sext i32 %67 to i64
  %69 = getelementptr inbounds [2 x i32], ptr %9, i64 0, i64 %68
  %70 = load i32, ptr %69, align 4, !tbaa !9
  %71 = and i32 %70, 1
  store i32 %71, ptr %11, align 4, !tbaa !9
  call void @llvm.lifetime.start.p0(i64 4, ptr %12) #9
  %72 = load i32, ptr %11, align 4, !tbaa !9
  %73 = add nsw i32 %72, 1
  store i32 %73, ptr %12, align 4, !tbaa !9
  call void @llvm.lifetime.start.p0(i64 8, ptr %13) #9
  %74 = getelementptr inbounds [6 x %struct.MvField], ptr %8, i64 0, i64 0
  %75 = load i32, ptr %10, align 4, !tbaa !9
  %76 = sext i32 %75 to i64
  %77 = getelementptr inbounds [2 x i32], ptr %9, i64 0, i64 %76
  %78 = load i32, ptr %77, align 4, !tbaa !9
  %79 = sext i32 %78 to i64
  %80 = getelementptr inbounds %struct.MvField, ptr %74, i64 %79
  store ptr %80, ptr %13, align 8, !tbaa !77
  %81 = load ptr, ptr %13, align 8, !tbaa !77
  %82 = getelementptr inbounds nuw %struct.MvField, ptr %81, i32 0, i32 4
  %83 = load i8, ptr %82, align 4, !tbaa !110
  %84 = zext i8 %83 to i32
  %85 = load i32, ptr %12, align 4, !tbaa !9
  %86 = and i32 %84, %85
  %87 = icmp ne i32 %86, 0
  br i1 %87, label %95, label %88

88:                                               ; preds = %66
  %89 = load i32, ptr %11, align 4, !tbaa !9
  %90 = icmp ne i32 %89, 0
  %91 = xor i1 %90, true
  %92 = zext i1 %91 to i32
  store i32 %92, ptr %11, align 4, !tbaa !9
  %93 = load i32, ptr %11, align 4, !tbaa !9
  %94 = add nsw i32 %93, 1
  store i32 %94, ptr %12, align 4, !tbaa !9
  br label %95

95:                                               ; preds = %88, %66
  %96 = load i32, ptr %12, align 4, !tbaa !9
  %97 = trunc i32 %96 to i8
  %98 = load ptr, ptr %6, align 8, !tbaa !77
  %99 = load i32, ptr %10, align 4, !tbaa !9
  %100 = sext i32 %99 to i64
  %101 = getelementptr inbounds %struct.MvField, ptr %98, i64 %100
  %102 = getelementptr inbounds nuw %struct.MvField, ptr %101, i32 0, i32 4
  store i8 %97, ptr %102, align 4, !tbaa !110
  %103 = load ptr, ptr %13, align 8, !tbaa !77
  %104 = getelementptr inbounds nuw %struct.MvField, ptr %103, i32 0, i32 1
  %105 = load i32, ptr %11, align 4, !tbaa !9
  %106 = sext i32 %105 to i64
  %107 = getelementptr inbounds [2 x i8], ptr %104, i64 0, i64 %106
  %108 = load i8, ptr %107, align 1, !tbaa !35
  %109 = load ptr, ptr %6, align 8, !tbaa !77
  %110 = load i32, ptr %10, align 4, !tbaa !9
  %111 = sext i32 %110 to i64
  %112 = getelementptr inbounds %struct.MvField, ptr %109, i64 %111
  %113 = getelementptr inbounds nuw %struct.MvField, ptr %112, i32 0, i32 1
  %114 = load i32, ptr %11, align 4, !tbaa !9
  %115 = sext i32 %114 to i64
  %116 = getelementptr inbounds [2 x i8], ptr %113, i64 0, i64 %115
  store i8 %108, ptr %116, align 1, !tbaa !35
  %117 = load ptr, ptr %6, align 8, !tbaa !77
  %118 = load i32, ptr %10, align 4, !tbaa !9
  %119 = sext i32 %118 to i64
  %120 = getelementptr inbounds %struct.MvField, ptr %117, i64 %119
  %121 = getelementptr inbounds nuw %struct.MvField, ptr %120, i32 0, i32 0
  %122 = load i32, ptr %11, align 4, !tbaa !9
  %123 = sext i32 %122 to i64
  %124 = getelementptr inbounds [2 x %struct.Mv], ptr %121, i64 0, i64 %123
  %125 = load ptr, ptr %13, align 8, !tbaa !77
  %126 = getelementptr inbounds nuw %struct.MvField, ptr %125, i32 0, i32 0
  %127 = load i32, ptr %11, align 4, !tbaa !9
  %128 = sext i32 %127 to i64
  %129 = getelementptr inbounds [2 x %struct.Mv], ptr %126, i64 0, i64 %128
  call void @llvm.memcpy.p0.p0.i64(ptr align 8 %124, ptr align 8 %129, i64 8, i1 false), !tbaa.struct !155
  call void @llvm.lifetime.end.p0(i64 8, ptr %13) #9
  call void @llvm.lifetime.end.p0(i64 4, ptr %12) #9
  call void @llvm.lifetime.end.p0(i64 4, ptr %11) #9
  br label %130

130:                                              ; preds = %95
  %131 = load i32, ptr %10, align 4, !tbaa !9
  %132 = add nsw i32 %131, 1
  store i32 %132, ptr %10, align 4, !tbaa !9
  br label %62, !llvm.loop !166

133:                                              ; preds = %65
  call void @llvm.lifetime.end.p0(i64 8, ptr %9) #9
  call void @llvm.lifetime.end.p0(i64 144, ptr %8) #9
  call void @llvm.lifetime.end.p0(i64 8, ptr %7) #9
  ret void
}