; Function Attrs: nounwind uwtable
define void @ff_vvc_luma_mv_merge_gpm(ptr noundef %0, ptr noundef readonly captures(none) %1, ptr noundef writeonly captures(none) initializes((0, 48)) %2) local_unnamed_addr #7 {
  %4 = alloca [6 x %struct.MvField], align 16
  %5 = getelementptr inbounds nuw i8, ptr %0, i64 4547736
  %6 = load ptr, ptr %5, align 8, !tbaa !80
  call void @llvm.lifetime.start.p0(i64 144, ptr nonnull %4) #14
  %7 = load i32, ptr %1, align 4, !tbaa !131
  %8 = getelementptr inbounds nuw i8, ptr %1, i64 4
  %9 = load i32, ptr %8, align 4, !tbaa !131
  %10 = icmp sge i32 %9, %7
  %11 = zext i1 %10 to i32
  %12 = add nsw i32 %9, %11
  %13 = getelementptr inbounds nuw i8, ptr %6, i64 4
  %14 = load i32, ptr %13, align 4, !tbaa !90
  %15 = getelementptr inbounds nuw i8, ptr %6, i64 8
  %16 = load i32, ptr %15, align 8, !tbaa !91
  %17 = getelementptr inbounds nuw i8, ptr %6, i64 12
  %18 = load i32, ptr %17, align 4, !tbaa !89
  %19 = getelementptr inbounds nuw i8, ptr %6, i64 16
  %20 = load i32, ptr %19, align 8, !tbaa !83
  tail call void @ff_vvc_set_neighbour_available(ptr noundef %0, i32 noundef %14, i32 noundef %16, i32 noundef %18, i32 noundef %20) #14
  %21 = tail call i32 @llvm.smax.i32(i32 %7, i32 %12)
  call fastcc void @mv_merge_mode(ptr noundef %0, i32 noundef %21, ptr noundef %4)
  tail call void @llvm.memset.p0.i64(ptr noundef nonnull align 8 dereferenceable(48) %2, i8 0, i64 48, i1 false)
  br label %23

22:                                               ; preds = %23
  call void @llvm.lifetime.end.p0(i64 144, ptr nonnull %4) #14
  ret void

23:                                               ; preds = %3, %23
  %24 = phi i1 [ true, %3 ], [ false, %23 ]
  %indvars.iv.sroa.phi.sroa.speculated = phi i32 [ %7, %3 ], [ %12, %23 ]
  %indvars.iv = phi i64 [ 0, %3 ], [ 1, %23 ]
  %25 = and i32 %indvars.iv.sroa.phi.sroa.speculated, 1
  %26 = add nuw nsw i32 %25, 1
  %27 = sext i32 %indvars.iv.sroa.phi.sroa.speculated to i64
  %28 = getelementptr inbounds %struct.MvField, ptr %4, i64 %27
  %29 = getelementptr inbounds nuw i8, ptr %28, i64 20
  %30 = load i8, ptr %29, align 4, !tbaa !92
  %31 = zext i8 %30 to i32
  %32 = and i32 %26, %31
  %.not = icmp eq i32 %32, 0
  %33 = sub nuw nsw i32 2, %25
  %34 = zext i1 %.not to i32
  %.034 = xor i32 %25, %34
  %.033 = select i1 %.not, i32 %33, i32 %26
  %35 = trunc nuw nsw i32 %.033 to i8
  %36 = getelementptr inbounds nuw %struct.MvField, ptr %2, i64 %indvars.iv
  %37 = getelementptr inbounds nuw i8, ptr %36, i64 20
  store i8 %35, ptr %37, align 4, !tbaa !92
  %38 = getelementptr inbounds nuw i8, ptr %28, i64 16
  %39 = zext nneg i32 %.034 to i64
  %40 = getelementptr inbounds nuw [2 x i8], ptr %38, i64 0, i64 %39
  %41 = load i8, ptr %40, align 1, !tbaa !29
  %42 = getelementptr inbounds nuw i8, ptr %36, i64 16
  %43 = getelementptr inbounds nuw [2 x i8], ptr %42, i64 0, i64 %39
  store i8 %41, ptr %43, align 1, !tbaa !29
  %44 = getelementptr inbounds nuw [2 x %struct.Mv], ptr %36, i64 0, i64 %39
  %45 = getelementptr inbounds nuw [2 x %struct.Mv], ptr %28, i64 0, i64 %39
  %46 = load i64, ptr %45, align 8
  store i64 %46, ptr %44, align 8
  br i1 %24, label %23, label %22, !llvm.loop !188
}